; ModuleID = '37/1682.c'
source_filename = "37/1682.c"
target datalayout = "e-m:e-p270:32:32-p271:32:32-p272:64:64-i64:64-f80:128-n8:16:32:64-S128"
target triple = "x86_64-pc-linux-gnu"

@.str = private unnamed_addr constant [3 x i8] c"%d\00", align 1
@.str.1 = private unnamed_addr constant [3 x i8] c"%s\00", align 1
@.str.2 = private unnamed_addr constant [4 x i8] c"%c\0A\00", align 1
@.str.3 = private unnamed_addr constant [4 x i8] c"no\0A\00", align 1

; Function Attrs: noinline nounwind uwtable
define dso_local i32 @main() #0 {
  %1 = alloca i32, align 4
  %2 = alloca i32, align 4
  %3 = alloca i32, align 4
  %4 = alloca i32, align 4
  %5 = alloca i32, align 4
  %6 = alloca i32, align 4
  %7 = alloca i32, align 4
  %8 = alloca i32, align 4
  %9 = alloca i32, align 4
  %10 = alloca [100002 x i32], align 16
  %11 = alloca [100002 x i8], align 16
  store i32 0, i32* %1, align 4
  %12 = call i32 (i8*, ...) @__isoc99_scanf(i8* getelementptr inbounds ([3 x i8], [3 x i8]* @.str, i64 0, i64 0), i32* %2)
  store i32 0, i32* %3, align 4
  br label %13

13:                                               ; preds = %100, %0
  %14 = load i32, i32* %3, align 4
  %15 = load i32, i32* %2, align 4
  %16 = icmp slt i32 %14, %15
  br i1 %16, label %17, label %103

17:                                               ; preds = %13
  %18 = call i32 (i8*, ...) @__isoc99_scanf(i8* getelementptr inbounds ([3 x i8], [3 x i8]* @.str.1, i64 0, i64 0), [100002 x i8]* %11)
  %19 = getelementptr inbounds [100002 x i8], [100002 x i8]* %11, i64 0, i64 0
  %20 = call i64 @strlen(i8* %19) #3
  %21 = trunc i64 %20 to i32
  store i32 %21, i32* %4, align 4
  store i32 0, i32* %5, align 4
  br label %22

22:                                               ; preds = %57, %17
  %23 = load i32, i32* %5, align 4
  %24 = load i32, i32* %4, align 4
  %25 = icmp slt i32 %23, %24
  br i1 %25, label %26, label %60

26:                                               ; preds = %22
  %27 = load i32, i32* %5, align 4
  %28 = sext i32 %27 to i64
  %29 = getelementptr inbounds [100002 x i32], [100002 x i32]* %10, i64 0, i64 %28
  store i32 0, i32* %29, align 4
  store i32 0, i32* %6, align 4
  br label %30

30:                                               ; preds = %53, %26
  %31 = load i32, i32* %6, align 4
  %32 = load i32, i32* %4, align 4
  %33 = icmp slt i32 %31, %32
  br i1 %33, label %34, label %56

34:                                               ; preds = %30
  %35 = load i32, i32* %6, align 4
  %36 = sext i32 %35 to i64
  %37 = getelementptr inbounds [100002 x i8], [100002 x i8]* %11, i64 0, i64 %36
  %38 = load i8, i8* %37, align 1
  %39 = sext i8 %38 to i32
  %40 = load i32, i32* %5, align 4
  %41 = sext i32 %40 to i64
  %42 = getelementptr inbounds [100002 x i8], [100002 x i8]* %11, i64 0, i64 %41
  %43 = load i8, i8* %42, align 1
  %44 = sext i8 %43 to i32
  %45 = icmp eq i32 %39, %44
  br i1 %45, label %46, label %52

46:                                               ; preds = %34
  %47 = load i32, i32* %5, align 4
  %48 = sext i32 %47 to i64
  %49 = getelementptr inbounds [100002 x i32], [100002 x i32]* %10, i64 0, i64 %48
  %50 = load i32, i32* %49, align 4
  %51 = add nsw i32 %50, 1
  store i32 %51, i32* %49, align 4
  br label %52

52:                                               ; preds = %46, %34
  br label %53

53:                                               ; preds = %52
  %54 = load i32, i32* %6, align 4
  %55 = add nsw i32 %54, 1
  store i32 %55, i32* %6, align 4
  br label %30

56:                                               ; preds = %30
  br label %57

57:                                               ; preds = %56
  %58 = load i32, i32* %5, align 4
  %59 = add nsw i32 %58, 1
  store i32 %59, i32* %5, align 4
  br label %22

60:                                               ; preds = %22
  store i32 0, i32* %7, align 4
  %61 = getelementptr inbounds [100002 x i32], [100002 x i32]* %10, i64 0, i64 0
  %62 = load i32, i32* %61, align 16
  store i32 %62, i32* %9, align 4
  store i32 0, i32* %8, align 4
  br label %63

63:                                               ; preds = %81, %60
  %64 = load i32, i32* %8, align 4
  %65 = load i32, i32* %4, align 4
  %66 = icmp slt i32 %64, %65
  br i1 %66, label %67, label %84

67:                                               ; preds = %63
  %68 = load i32, i32* %8, align 4
  %69 = sext i32 %68 to i64
  %70 = getelementptr inbounds [100002 x i32], [100002 x i32]* %10, i64 0, i64 %69
  %71 = load i32, i32* %70, align 4
  %72 = load i32, i32* %9, align 4
  %73 = icmp slt i32 %71, %72
  br i1 %73, label %74, label %80

74:                                               ; preds = %67
  %75 = load i32, i32* %8, align 4
  %76 = sext i32 %75 to i64
  %77 = getelementptr inbounds [100002 x i32], [100002 x i32]* %10, i64 0, i64 %76
  %78 = load i32, i32* %77, align 4
  store i32 %78, i32* %9, align 4
  %79 = load i32, i32* %8, align 4
  store i32 %79, i32* %7, align 4
  br label %80

80:                                               ; preds = %74, %67
  br label %81

81:                                               ; preds = %80
  %82 = load i32, i32* %8, align 4
  %83 = add nsw i32 %82, 1
  store i32 %83, i32* %8, align 4
  br label %63

84:                                               ; preds = %63
  %85 = load i32, i32* %9, align 4
  %86 = icmp eq i32 %85, 1
  br i1 %86, label %87, label %94

87:                                               ; preds = %84
  %88 = load i32, i32* %7, align 4
  %89 = sext i32 %88 to i64
  %90 = getelementptr inbounds [100002 x i8], [100002 x i8]* %11, i64 0, i64 %89
  %91 = load i8, i8* %90, align 1
  %92 = sext i8 %91 to i32
  %93 = call i32 (i8*, ...) @printf(i8* getelementptr inbounds ([4 x i8], [4 x i8]* @.str.2, i64 0, i64 0), i32 %92)
  br label %94

94:                                               ; preds = %87, %84
  %95 = load i32, i32* %9, align 4
  %96 = icmp sgt i32 %95, 1
  br i1 %96, label %97, label %99

97:                                               ; preds = %94
  %98 = call i32 (i8*, ...) @printf(i8* getelementptr inbounds ([4 x i8], [4 x i8]* @.str.3, i64 0, i64 0))
  br label %99

99:                                               ; preds = %97, %94
  br label %100

100:                                              ; preds = %99
  %101 = load i32, i32* %3, align 4
  %102 = add nsw i32 %101, 1
  store i32 %102, i32* %3, align 4
  br label %13

103:                                              ; preds = %13
  %104 = load i32, i32* %1, align 4
  ret i32 %104
}

declare dso_local i32 @__isoc99_scanf(i8*, ...) #1

; Function Attrs: nounwind readonly
declare dso_local i64 @strlen(i8*) #2

declare dso_local i32 @printf(i8*, ...) #1


!llvm.module.flags = !{!0}
!llvm.ident = !{!1}

!0 = !{i32 1, !"wchar_size", i32 4}
!1 = !{!"clang version 10.0.0-4ubuntu1 "}
